target datalayout = "e-m:e-p270:32:32-p271:32:32-p272:64:64-i64:64-i128:128-f80:128-n8:16:32:64-S128"
target triple = "x86_64-pc-linux-gnu"

@.str.1 = private unnamed_addr constant [16 x i8] c"[(%.0fm %.1fs)]\00", align 1
@.str.2 = private unnamed_addr constant [10 x i8] c"((%.1fs))\00", align 1
@.str.3 = private unnamed_addr constant [10 x i8] c"( %.2fs )\00", align 1
@.str.4 = private unnamed_addr constant [11 x i8] c" (%.0fms) \00", align 1

; Function Attrs: nounwind uwtable
define void @str_timeDelta(ptr noundef %0, double noundef %1) #0 {
  %3 = alloca ptr, align 8
  %4 = alloca double, align 8
  %5 = alloca double, align 8
  store ptr %0, ptr %3, align 8, !tbaa !15
  store double %1, ptr %4, align 8, !tbaa !24
  %6 = load double, ptr %4, align 8, !tbaa !24
  %7 = fcmp ogt double %6, 1.100000e+05
  br i1 %7, label %8, label %20

8:                                                ; preds = %2
  call void @llvm.lifetime.start.p0(i64 8, ptr %5) #12
  %9 = load double, ptr %4, align 8, !tbaa !24
  %10 = fdiv double %9, 6.000000e+04
  %11 = call double @uprv_floor_77(double noundef %10)
  store double %11, ptr %5, align 8, !tbaa !24
  %12 = load ptr, ptr %3, align 8, !tbaa !15
  %13 = load double, ptr %5, align 8, !tbaa !24
  %14 = load double, ptr %4, align 8, !tbaa !24
  %15 = load double, ptr %5, align 8, !tbaa !24
  %16 = fneg double %15
  %17 = call double @llvm.fmuladd.f64(double %16, double 6.000000e+04, double %14)
  %18 = fdiv double %17, 1.000000e+03
  %19 = call i32 (ptr, ptr, ...) @sprintf(ptr noundef %12, ptr noundef @.str.1, double noundef %13, double noundef %18) #12
  call void @llvm.lifetime.end.p0(i64 8, ptr %5) #12
  br label %49

20:                                               ; preds = %2
  %21 = load double, ptr %4, align 8, !tbaa !24
  %22 = fcmp ogt double %21, 1.500000e+03
  br i1 %22, label %23, label %28

23:                                               ; preds = %20
  %24 = load ptr, ptr %3, align 8, !tbaa !15
  %25 = load double, ptr %4, align 8, !tbaa !24
  %26 = fdiv double %25, 1.000000e+03
  %27 = call i32 (ptr, ptr, ...) @sprintf(ptr noundef %24, ptr noundef @.str.2, double noundef %26) #12
  br label %48

28:                                               ; preds = %20
  %29 = load double, ptr %4, align 8, !tbaa !24
  %30 = fcmp ogt double %29, 9.000000e+02
  br i1 %30, label %31, label %36

31:                                               ; preds = %28
  %32 = load ptr, ptr %3, align 8, !tbaa !15
  %33 = load double, ptr %4, align 8, !tbaa !24
  %34 = fdiv double %33, 1.000000e+03
  %35 = call i32 (ptr, ptr, ...) @sprintf(ptr noundef %32, ptr noundef @.str.3, double noundef %34) #12
  br label %47

36:                                               ; preds = %28
  %37 = load double, ptr %4, align 8, !tbaa !24
  %38 = fcmp ogt double %37, 5.000000e+00
  br i1 %38, label %39, label %43

39:                                               ; preds = %36
  %40 = load ptr, ptr %3, align 8, !tbaa !15
  %41 = load double, ptr %4, align 8, !tbaa !24
  %42 = call i32 (ptr, ptr, ...) @sprintf(ptr noundef %40, ptr noundef @.str.4, double noundef %41) #12
  br label %46

43:                                               ; preds = %36
  %44 = load ptr, ptr %3, align 8, !tbaa !15
  %45 = getelementptr inbounds i8, ptr %44, i64 0
  store i8 0, ptr %45, align 1, !tbaa !20
  br label %46

46:                                               ; preds = %43, %39
  br label %47

47:                                               ; preds = %46, %31
  br label %48

48:                                               ; preds = %47, %23
  br label %49

49:                                               ; preds = %48, %8
  ret void
}