; Function Attrs: nounwind uwtable
define void @str_timeDelta(ptr noundef writeonly captures(none) %0, double noundef %1) local_unnamed_addr #0 {
  %3 = fcmp ogt double %1, 1.100000e+05
  br i1 %3, label %4, label %11

4:                                                ; preds = %2
  %5 = fdiv double %1, 6.000000e+04
  %6 = tail call double @uprv_floor_77(double noundef %5) #23
  %7 = fneg double %6
  %8 = tail call double @llvm.fmuladd.f64(double %7, double 6.000000e+04, double %1)
  %9 = fdiv double %8, 1.000000e+03
  %10 = tail call i32 (ptr, ptr, ...) @sprintf(ptr noundef nonnull dereferenceable(1) %0, ptr noundef nonnull dereferenceable(1) @.str.1, double noundef %6, double noundef %9) #23
  br label %26

11:                                               ; preds = %2
  %12 = fcmp ogt double %1, 1.500000e+03
  br i1 %12, label %13, label %16

13:                                               ; preds = %11
  %14 = fdiv double %1, 1.000000e+03
  %15 = tail call i32 (ptr, ptr, ...) @sprintf(ptr noundef nonnull dereferenceable(1) %0, ptr noundef nonnull dereferenceable(1) @.str.2, double noundef %14) #23
  br label %26

16:                                               ; preds = %11
  %17 = fcmp ogt double %1, 9.000000e+02
  br i1 %17, label %18, label %21

18:                                               ; preds = %16
  %19 = fdiv double %1, 1.000000e+03
  %20 = tail call i32 (ptr, ptr, ...) @sprintf(ptr noundef nonnull dereferenceable(1) %0, ptr noundef nonnull dereferenceable(1) @.str.3, double noundef %19) #23
  br label %26

21:                                               ; preds = %16
  %22 = fcmp ogt double %1, 5.000000e+00
  br i1 %22, label %23, label %25

23:                                               ; preds = %21
  %24 = tail call i32 (ptr, ptr, ...) @sprintf(ptr noundef nonnull dereferenceable(1) %0, ptr noundef nonnull dereferenceable(1) @.str.4, double noundef %1) #23
  br label %26

25:                                               ; preds = %21
  store i8 0, ptr %0, align 1, !tbaa !11
  br label %26

26:                                               ; preds = %13, %23, %25, %18, %4
  ret void
}